ccopy_reg
_reconstructor
p0
(csklearn.linear_model.coordinate_descent
Lasso
p1
c__builtin__
object
p2
Ntp3
Rp4
(dp5
S'normalize'
p6
I00
sS'warm_start'
p7
I00
sS'selection'
p8
S'cyclic'
p9
sS'fit_intercept'
p10
I01
sS'l1_ratio'
p11
F1.0
sS'max_iter'
p12
I1000
sS'n_iter_'
p13
I34
sS'intercept_'
p14
cnumpy.core.multiarray
_reconstruct
p15
(cnumpy
ndarray
p16
(I0
tp17
S'b'
p18
tp19
Rp20
(I1
(I1
tp21
cnumpy
dtype
p22
(S'f8'
p23
I0
I1
tp24
Rp25
(I3
S'<'
p26
NNNI-1
I-1
I0
tp27
bI00
S'\x9a\x84\x94\xd1@VN\xc0'
p28
tp29
bsS'precompute'
p30
I00
sS'random_state'
p31
NsS'_sklearn_version'
p32
S'0.18.1'
p33
sS'tol'
p34
F0.0001
sS'positive'
p35
I00
sS'copy_X'
p36
I01
sS'alpha'
p37
F0.001
sS'coef_'
p38
g15
(g16
(I0
tp39
g18
tp40
Rp41
(I1
(I5
tp42
g25
I00
S'\xab\xd2\xa3\xc8e\xa8\xf0?uY\xa3g\xc5\x0e \xc0O\xe7a\nR\xb8\xc9?\x90\xddW\xcb>\xae\xd2\xbf\x00\x00\x00\x00\x00\x00\x00\x00'
p43
tp44
bsS'dual_gap_'
p45
g15
(g16
(I0
tp46
g18
tp47
Rp48
(I1
(tg25
I00
S'\x00\x98\xdb\xca\xe5\x1f\xf5@'
p49
tp50
bsb.