ccopy_reg
_reconstructor
p0
(csklearn.linear_model.base
LinearRegression
p1
c__builtin__
object
p2
Ntp3
Rp4
(dp5
S'normalize'
p6
I00
sS'n_jobs'
p7
I1
sS'rank_'
p8
I4
sS'fit_intercept'
p9
I01
sS'_residues'
p10
cnumpy.core.multiarray
_reconstruct
p11
(cnumpy
ndarray
p12
(I0
tp13
S'b'
p14
tp15
Rp16
(I1
(L0L
tp17
cnumpy
dtype
p18
(S'f8'
p19
I0
I1
tp20
Rp21
(I3
S'<'
p22
NNNI-1
I-1
I0
tp23
bI00
S''
p24
tp25
bsS'singular_'
p26
g11
(g12
(I0
tp27
g14
tp28
Rp29
(I1
(L5L
tp30
g21
I00
S'\x9aN\xb6\xe1.j\xe4@\xce\x8aVM\x13\x8a\xc5@|!#$\x81&\xb5@\xb1\x91\xcd\x8c\xf1N\x86@\x00\x00\x00\x00\x00\x00\x00\x00'
p31
tp32
bsS'coef_'
p33
g11
(g12
(I0
tp34
g14
tp35
Rp36
(I1
(L1L
L5L
tp37
g21
I00
S'\x8d\x8b\n\xe6\xfc\xaf\xf0?\xa0\x1c \x1aA& \xc0\x17\xe3\xcc@I\xb4\xc9?Cg\x88\x9a4\xe7\xd2\xbf\x00\x00\x00\x00\x00\x00\x00\x00'
p38
tp39
bsS'_sklearn_version'
p40
S'0.18.1'
p41
sS'copy_X'
p42
I01
sS'intercept_'
p43
g11
(g12
(I0
tp44
g14
tp45
Rp46
(I1
(L1L
tp47
g21
I00
S'\xcc\x04Q\xba\xfb_N\xc0'
p48
tp49
bsb.